; Function Attrs: nounwind uwtable
define internal ptr @anextawaitable_iternext(ptr noundef readonly captures(none) %0) #0 {
  %2 = getelementptr i8, ptr %0, i64 16
  %.val12 = load ptr, ptr %2, align 8, !tbaa !100
  %3 = tail call fastcc ptr @anextawaitable_getiter(ptr %.val12)
  %4 = icmp eq ptr %3, null
  br i1 %4, label %22, label %5

5:                                                ; preds = %1
  %6 = getelementptr i8, ptr %3, i64 8
  %.val = load ptr, ptr %6, align 8, !tbaa !103
  %7 = getelementptr inbounds nuw i8, ptr %.val, i64 224
  %8 = load ptr, ptr %7, align 8, !tbaa !112
  %9 = tail call ptr %8(ptr noundef nonnull %3) #4
  %10 = load i32, ptr %3, align 8, !tbaa !13
  %.not.i = icmp sgt i32 %10, -1
  br i1 %.not.i, label %11, label %Py_DECREF.exit

11:                                               ; preds = %5
  %12 = add nsw i32 %10, -1
  store i32 %12, ptr %3, align 8, !tbaa !13
  %13 = icmp eq i32 %12, 0
  br i1 %13, label %14, label %Py_DECREF.exit

14:                                               ; preds = %11
  tail call void @_Py_Dealloc(ptr noundef nonnull %3) #4
  br label %Py_DECREF.exit

Py_DECREF.exit:                                   ; preds = %5, %11, %14
  %.not = icmp eq ptr %9, null
  br i1 %.not, label %15, label %22

15:                                               ; preds = %Py_DECREF.exit
  %16 = load ptr, ptr @PyExc_StopAsyncIteration, align 8, !tbaa !99
  %17 = tail call i32 @PyErr_ExceptionMatches(ptr noundef %16) #4
  %.not11 = icmp eq i32 %17, 0
  br i1 %.not11, label %22, label %18

18:                                               ; preds = %15
  tail call void @PyErr_Clear() #4
  %19 = getelementptr inbounds nuw i8, ptr %0, i64 24
  %20 = load ptr, ptr %19, align 8, !tbaa !102
  %21 = tail call i32 @_PyGen_SetStopIterationValue(ptr noundef %20) #4
  br label %22

22:                                               ; preds = %Py_DECREF.exit, %18, %15, %1
  %.0 = phi ptr [ null, %1 ], [ %9, %Py_DECREF.exit ], [ null, %18 ], [ null, %15 ]
  ret ptr %.0
}